target datalayout = "e-m:e-p270:32:32-p271:32:32-p272:64:64-i64:64-i128:128-f80:128-n8:16:32:64-S128"
target triple = "x86_64-pc-linux-gnu"

%struct.ec_key_st = type { ptr, ptr, i32, ptr, ptr, ptr, i32, i32, %struct.CRYPTO_REF_COUNT, i32, %struct.crypto_ex_data_st, ptr, ptr, i64 }
%struct.CRYPTO_REF_COUNT = type { i32 }
%struct.crypto_ex_data_st = type { ptr, ptr }

@.str = private unnamed_addr constant [35 x i8] c"../openssl/test/ec_internal_test.c\00", align 1
@.str.50 = private unnamed_addr constant [4 x i8] c"key\00", align 1
@.str.51 = private unnamed_addr constant [8 x i8] c"aux_key\00", align 1
@.str.52 = private unnamed_addr constant [25 x i8] c"EC_KEY_generate_key(key)\00", align 1
@.str.53 = private unnamed_addr constant [2 x i8] c"1\00", align 1
@.str.54 = private unnamed_addr constant [29 x i8] c"EC_KEY_generate_key(aux_key)\00", align 1
@.str.55 = private unnamed_addr constant [47 x i8] c"EC_KEY_set_private_key(key, aux_key->priv_key)\00", align 1
@.str.56 = private unnamed_addr constant [34 x i8] c"EC_KEY_set_private_key(key, NULL)\00", align 1
@.str.57 = private unnamed_addr constant [2 x i8] c"0\00", align 1
@.str.58 = private unnamed_addr constant [14 x i8] c"key->priv_key\00", align 1

; Function Attrs: nounwind uwtable
define internal i32 @set_private_key() #0 {
  %1 = alloca ptr, align 8
  %2 = alloca ptr, align 8
  %3 = alloca i32, align 4
  call void @llvm.lifetime.start.p0(i64 8, ptr %1) #4
  store ptr null, ptr %1, align 8, !tbaa !21
  call void @llvm.lifetime.start.p0(i64 8, ptr %2) #4
  store ptr null, ptr %2, align 8, !tbaa !21
  call void @llvm.lifetime.start.p0(i64 4, ptr %3) #4
  store i32 0, ptr %3, align 4, !tbaa !10
  %4 = call ptr @EC_KEY_new_by_curve_name(i32 noundef 713)
  store ptr %4, ptr %1, align 8, !tbaa !21
  %5 = call ptr @EC_KEY_new_by_curve_name(i32 noundef 713)
  store ptr %5, ptr %2, align 8, !tbaa !21
  %6 = load ptr, ptr %1, align 8, !tbaa !21
  %7 = call i32 @test_ptr(ptr noundef @.str, i32 noundef 323, ptr noundef @.str.50, ptr noundef %6)
  %8 = icmp ne i32 %7, 0
  br i1 %8, label %9, label %23

9:                                                ; preds = %0
  %10 = load ptr, ptr %2, align 8, !tbaa !21
  %11 = call i32 @test_ptr(ptr noundef @.str, i32 noundef 324, ptr noundef @.str.51, ptr noundef %10)
  %12 = icmp ne i32 %11, 0
  br i1 %12, label %13, label %23

13:                                               ; preds = %9
  %14 = load ptr, ptr %1, align 8, !tbaa !21
  %15 = call i32 @EC_KEY_generate_key(ptr noundef %14)
  %16 = call i32 @test_int_eq(ptr noundef @.str, i32 noundef 325, ptr noundef @.str.52, ptr noundef @.str.53, i32 noundef %15, i32 noundef 1)
  %17 = icmp ne i32 %16, 0
  br i1 %17, label %18, label %23

18:                                               ; preds = %13
  %19 = load ptr, ptr %2, align 8, !tbaa !21
  %20 = call i32 @EC_KEY_generate_key(ptr noundef %19)
  %21 = call i32 @test_int_eq(ptr noundef @.str, i32 noundef 326, ptr noundef @.str.54, ptr noundef @.str.53, i32 noundef %20, i32 noundef 1)
  %22 = icmp ne i32 %21, 0
  br i1 %22, label %24, label %23

23:                                               ; preds = %18, %13, %9, %0
  br label %46

24:                                               ; preds = %18
  %25 = load ptr, ptr %1, align 8, !tbaa !21
  %26 = load ptr, ptr %2, align 8, !tbaa !21
  %27 = getelementptr inbounds nuw %struct.ec_key_st, ptr %26, i32 0, i32 5
  %28 = load ptr, ptr %27, align 8, !tbaa !23
  %29 = call i32 @EC_KEY_set_private_key(ptr noundef %25, ptr noundef %28)
  %30 = call i32 @test_int_eq(ptr noundef @.str, i32 noundef 330, ptr noundef @.str.55, ptr noundef @.str.53, i32 noundef %29, i32 noundef 1)
  %31 = icmp ne i32 %30, 0
  br i1 %31, label %33, label %32

32:                                               ; preds = %24
  br label %46

33:                                               ; preds = %24
  %34 = load ptr, ptr %1, align 8, !tbaa !21
  %35 = call i32 @EC_KEY_set_private_key(ptr noundef %34, ptr noundef null)
  %36 = call i32 @test_int_eq(ptr noundef @.str, i32 noundef 334, ptr noundef @.str.56, ptr noundef @.str.57, i32 noundef %35, i32 noundef 0)
  %37 = icmp ne i32 %36, 0
  br i1 %37, label %38, label %44

38:                                               ; preds = %33
  %39 = load ptr, ptr %1, align 8, !tbaa !21
  %40 = getelementptr inbounds nuw %struct.ec_key_st, ptr %39, i32 0, i32 5
  %41 = load ptr, ptr %40, align 8, !tbaa !23
  %42 = call i32 @test_ptr_null(ptr noundef @.str, i32 noundef 335, ptr noundef @.str.58, ptr noundef %41)
  %43 = icmp ne i32 %42, 0
  br i1 %43, label %45, label %44

44:                                               ; preds = %38, %33
  br label %46

45:                                               ; preds = %38
  store i32 1, ptr %3, align 4, !tbaa !10
  br label %46

46:                                               ; preds = %45, %44, %32, %23
  %47 = load ptr, ptr %1, align 8, !tbaa !21
  call void @EC_KEY_free(ptr noundef %47)
  %48 = load ptr, ptr %2, align 8, !tbaa !21
  call void @EC_KEY_free(ptr noundef %48)
  %49 = load i32, ptr %3, align 4, !tbaa !10
  call void @llvm.lifetime.end.p0(i64 4, ptr %3) #4
  call void @llvm.lifetime.end.p0(i64 8, ptr %2) #4
  call void @llvm.lifetime.end.p0(i64 8, ptr %1) #4
  ret i32 %49
}