; Function Attrs: nounwind uwtable
define internal range(i32 0, 2) i32 @set_private_key() #0 {
  %1 = tail call ptr @EC_KEY_new_by_curve_name(i32 noundef 713) #4
  %2 = tail call ptr @EC_KEY_new_by_curve_name(i32 noundef 713) #4
  %3 = tail call i32 @test_ptr(ptr noundef nonnull @.str, i32 noundef 323, ptr noundef nonnull @.str.50, ptr noundef %1) #4
  %.not = icmp eq i32 %3, 0
  br i1 %.not, label %24, label %4

4:                                                ; preds = %0
  %5 = tail call i32 @test_ptr(ptr noundef nonnull @.str, i32 noundef 324, ptr noundef nonnull @.str.51, ptr noundef %2) #4
  %.not10 = icmp eq i32 %5, 0
  br i1 %.not10, label %24, label %6

6:                                                ; preds = %4
  %7 = tail call i32 @EC_KEY_generate_key(ptr noundef %1) #4
  %8 = tail call i32 @test_int_eq(ptr noundef nonnull @.str, i32 noundef 325, ptr noundef nonnull @.str.52, ptr noundef nonnull @.str.53, i32 noundef %7, i32 noundef 1) #4
  %.not11 = icmp eq i32 %8, 0
  br i1 %.not11, label %24, label %9

9:                                                ; preds = %6
  %10 = tail call i32 @EC_KEY_generate_key(ptr noundef %2) #4
  %11 = tail call i32 @test_int_eq(ptr noundef nonnull @.str, i32 noundef 326, ptr noundef nonnull @.str.54, ptr noundef nonnull @.str.53, i32 noundef %10, i32 noundef 1) #4
  %.not12 = icmp eq i32 %11, 0
  br i1 %.not12, label %24, label %12

12:                                               ; preds = %9
  %13 = getelementptr inbounds nuw i8, ptr %2, i64 40
  %14 = load ptr, ptr %13, align 8, !tbaa !14
  %15 = tail call i32 @EC_KEY_set_private_key(ptr noundef %1, ptr noundef %14) #4
  %16 = tail call i32 @test_int_eq(ptr noundef nonnull @.str, i32 noundef 330, ptr noundef nonnull @.str.55, ptr noundef nonnull @.str.53, i32 noundef %15, i32 noundef 1) #4
  %.not13 = icmp eq i32 %16, 0
  br i1 %.not13, label %24, label %17

17:                                               ; preds = %12
  %18 = tail call i32 @EC_KEY_set_private_key(ptr noundef %1, ptr noundef null) #4
  %19 = tail call i32 @test_int_eq(ptr noundef nonnull @.str, i32 noundef 334, ptr noundef nonnull @.str.56, ptr noundef nonnull @.str.57, i32 noundef %18, i32 noundef 0) #4
  %.not14 = icmp eq i32 %19, 0
  br i1 %.not14, label %24, label %20

20:                                               ; preds = %17
  %21 = getelementptr inbounds nuw i8, ptr %1, i64 40
  %22 = load ptr, ptr %21, align 8, !tbaa !14
  %23 = tail call i32 @test_ptr_null(ptr noundef nonnull @.str, i32 noundef 335, ptr noundef nonnull @.str.58, ptr noundef %22) #4
  %.not15 = icmp ne i32 %23, 0
  %spec.select = zext i1 %.not15 to i32
  br label %24

24:                                               ; preds = %20, %17, %12, %0, %4, %6, %9
  %.0 = phi i32 [ 0, %17 ], [ 0, %12 ], [ 0, %9 ], [ 0, %6 ], [ 0, %4 ], [ 0, %0 ], [ %spec.select, %20 ]
  tail call void @EC_KEY_free(ptr noundef %1) #4
  tail call void @EC_KEY_free(ptr noundef %2) #4
  ret i32 %.0
}